; Function Attrs: mustprogress nounwind uwtable
define internal fastcc noundef ptr @_ZL20getStartForNegStridePKN4llvm4SCEVES2_PNS_4TypeES2_PNS_15ScalarEvolutionE(ptr noundef %0, ptr noundef %1, ptr noundef %2, ptr noundef %3, ptr noundef nonnull %4) unnamed_addr #0 {
  %6 = alloca %"class.llvm::SmallVector.496", align 8
  %7 = alloca [2 x ptr], align 8
  %8 = tail call noundef ptr @_ZN4llvm15ScalarEvolution23getTruncateOrZeroExtendEPKNS_4SCEVEPNS_4TypeEj(ptr noundef nonnull align 8 dereferenceable(1392) %4, ptr noundef %1, ptr noundef %2, i32 noundef 0) #22
  %9 = tail call noundef zeroext i1 @_ZNK4llvm4SCEV5isOneEv(ptr noundef nonnull align 8 dereferenceable(30) %3) #22
  br i1 %9, label %20, label %10

10:                                               ; preds = %5
  %11 = tail call noundef ptr @_ZN4llvm15ScalarEvolution23getTruncateOrZeroExtendEPKNS_4SCEVEPNS_4TypeEj(ptr noundef nonnull align 8 dereferenceable(1392) %4, ptr noundef nonnull %3, ptr noundef %2, i32 noundef 0) #22
  call void @llvm.lifetime.start.p0(i64 32, ptr nonnull %6)
  call void @llvm.lifetime.start.p0(i64 16, ptr nonnull %7)
  store ptr %8, ptr %7, align 8
  %12 = getelementptr inbounds i8, ptr %7, i64 8
  store ptr %11, ptr %12, align 8
  %13 = getelementptr inbounds i8, ptr %6, i64 16
  call void @_ZN4llvm15SmallVectorBaseIjEC2EPvm(ptr noundef nonnull align 8 dereferenceable(16) %6, ptr noundef nonnull %13, i64 noundef 2) #22
  %14 = getelementptr inbounds i8, ptr %7, i64 16
  call void @_ZN4llvm15SmallVectorImplIPKNS_4SCEVEE6appendIPKS3_vEEvT_S8_(ptr noundef nonnull align 8 dereferenceable(16) %6, ptr noundef nonnull %7, ptr noundef nonnull %14)
  %15 = call noundef ptr @_ZN4llvm15ScalarEvolution10getMulExprERNS_15SmallVectorImplIPKNS_4SCEVEEENS2_11NoWrapFlagsEj(ptr noundef nonnull align 8 dereferenceable(1392) %4, ptr noundef nonnull align 8 dereferenceable(16) %6, i32 noundef 2, i32 noundef 0) #22
  %16 = call noundef i64 @_ZNK4llvm15SmallVectorBaseIjE4sizeEv(ptr noundef nonnull align 8 dereferenceable(16) %6) #22
  %17 = load ptr, ptr %6, align 8
  %18 = icmp eq ptr %17, %13
  br i1 %18, label %_ZN4llvm15ScalarEvolution10getMulExprEPKNS_4SCEVES3_NS1_11NoWrapFlagsEj.exit, label %19

19:                                               ; preds = %10
  call void @free(ptr noundef %17) #22
  br label %_ZN4llvm15ScalarEvolution10getMulExprEPKNS_4SCEVES3_NS1_11NoWrapFlagsEj.exit

_ZN4llvm15ScalarEvolution10getMulExprEPKNS_4SCEVES3_NS1_11NoWrapFlagsEj.exit: ; preds = %10, %19
  call void @llvm.lifetime.end.p0(i64 32, ptr nonnull %6)
  call void @llvm.lifetime.end.p0(i64 16, ptr nonnull %7)
  br label %20

20:                                               ; preds = %_ZN4llvm15ScalarEvolution10getMulExprEPKNS_4SCEVES3_NS1_11NoWrapFlagsEj.exit, %5
  %.0 = phi ptr [ %8, %5 ], [ %15, %_ZN4llvm15ScalarEvolution10getMulExprEPKNS_4SCEVES3_NS1_11NoWrapFlagsEj.exit ]
  %21 = call noundef ptr @_ZN4llvm15ScalarEvolution12getMinusSCEVEPKNS_4SCEVES3_NS1_11NoWrapFlagsEj(ptr noundef nonnull align 8 dereferenceable(1392) %4, ptr noundef %0, ptr noundef %.0, i32 noundef 0, i32 noundef 0) #22
  ret ptr %21
}